; ModuleID = 'source-C-CXX/4/631.c'
source_filename = "source-C-CXX/4/631.c"
target datalayout = "e-m:e-p270:32:32-p271:32:32-p272:64:64-i64:64-f80:128-n8:16:32:64-S128"
target triple = "x86_64-pc-linux-gnu"

@.str = private unnamed_addr constant [4 x i8] c"%lf\00", align 1
@.str.1 = private unnamed_addr constant [3 x i8] c"%s\00", align 1
@.str.2 = private unnamed_addr constant [6 x i8] c"error\00", align 1
@.str.3 = private unnamed_addr constant [4 x i8] c"yes\00", align 1
@.str.4 = private unnamed_addr constant [3 x i8] c"no\00", align 1

; Function Attrs: nofree nounwind sspstrong uwtable
define dso_local i32 @main() local_unnamed_addr #0 {
  %1 = alloca double, align 8
  %2 = alloca [501 x i8], align 16
  %3 = alloca [501 x i8], align 16
  %4 = bitcast double* %1 to i8*
  call void @llvm.lifetime.start.p0i8(i64 8, i8* nonnull %4) #4
  %5 = getelementptr inbounds [501 x i8], [501 x i8]* %2, i64 0, i64 0
  call void @llvm.lifetime.start.p0i8(i64 501, i8* nonnull %5) #4
  %6 = getelementptr inbounds [501 x i8], [501 x i8]* %3, i64 0, i64 0
  call void @llvm.lifetime.start.p0i8(i64 501, i8* nonnull %6) #4
  %7 = call i32 (i8*, ...) @__isoc99_scanf(i8* getelementptr inbounds ([4 x i8], [4 x i8]* @.str, i64 0, i64 0), double* nonnull %1)
  %8 = call i32 (i8*, ...) @__isoc99_scanf(i8* getelementptr inbounds ([3 x i8], [3 x i8]* @.str.1, i64 0, i64 0), i8* nonnull %5)
  %9 = call i32 (i8*, ...) @__isoc99_scanf(i8* getelementptr inbounds ([3 x i8], [3 x i8]* @.str.1, i64 0, i64 0), i8* nonnull %6)
  %10 = call i64 @strlen(i8* noundef nonnull %5) #5
  %11 = call i64 @strlen(i8* noundef nonnull %6) #5
  %12 = icmp eq i64 %10, %11
  br i1 %12, label %13, label %47

13:                                               ; preds = %0, %23
  %14 = phi i64 [ %24, %23 ], [ 0, %0 ]
  %15 = getelementptr inbounds [501 x i8], [501 x i8]* %2, i64 0, i64 %14
  %16 = load i8, i8* %15, align 1, !tbaa !5
  switch i8 %16, label %47 [
    i8 0, label %17
    i8 65, label %20
    i8 84, label %20
    i8 67, label %20
    i8 71, label %20
  ]

17:                                               ; preds = %13
  %18 = load i8, i8* %5, align 16, !tbaa !5
  %19 = icmp eq i8 %18, 0
  br i1 %19, label %40, label %25

20:                                               ; preds = %13, %13, %13, %13
  %21 = getelementptr inbounds [501 x i8], [501 x i8]* %3, i64 0, i64 %14
  %22 = load i8, i8* %21, align 1, !tbaa !5
  switch i8 %22, label %47 [
    i8 65, label %23
    i8 84, label %23
    i8 67, label %23
    i8 71, label %23
  ]

23:                                               ; preds = %20, %20, %20, %20
  %24 = add nuw i64 %14, 1
  br label %13, !llvm.loop !8

25:                                               ; preds = %17, %25
  %26 = phi i64 [ %34, %25 ], [ 0, %17 ]
  %27 = phi i8 [ %36, %25 ], [ %18, %17 ]
  %28 = phi i32 [ %33, %25 ], [ 0, %17 ]
  %29 = getelementptr inbounds [501 x i8], [501 x i8]* %3, i64 0, i64 %26
  %30 = load i8, i8* %29, align 1, !tbaa !5
  %31 = icmp eq i8 %27, %30
  %32 = zext i1 %31 to i32
  %33 = add nuw nsw i32 %28, %32
  %34 = add nuw nsw i64 %26, 1
  %35 = getelementptr inbounds [501 x i8], [501 x i8]* %2, i64 0, i64 %34
  %36 = load i8, i8* %35, align 1, !tbaa !5
  %37 = icmp eq i8 %36, 0
  br i1 %37, label %38, label %25, !llvm.loop !10

38:                                               ; preds = %25
  %39 = sitofp i32 %33 to double
  br label %40

40:                                               ; preds = %38, %17
  %41 = phi double [ 0.000000e+00, %17 ], [ %39, %38 ]
  %42 = uitofp i64 %10 to double
  %43 = load double, double* %1, align 8, !tbaa !11
  %44 = fmul double %43, %42
  %45 = fcmp olt double %44, %41
  %46 = select i1 %45, i8* getelementptr inbounds ([4 x i8], [4 x i8]* @.str.3, i64 0, i64 0), i8* getelementptr inbounds ([3 x i8], [3 x i8]* @.str.4, i64 0, i64 0)
  br label %47

47:                                               ; preds = %13, %20, %40, %0
  %48 = phi i8* [ getelementptr inbounds ([6 x i8], [6 x i8]* @.str.2, i64 0, i64 0), %0 ], [ %46, %40 ], [ getelementptr inbounds ([6 x i8], [6 x i8]* @.str.2, i64 0, i64 0), %20 ], [ getelementptr inbounds ([6 x i8], [6 x i8]* @.str.2, i64 0, i64 0), %13 ]
  %49 = call i32 (i8*, ...) @printf(i8* nonnull dereferenceable(1) %48)
  call void @llvm.lifetime.end.p0i8(i64 501, i8* nonnull %6) #4
  call void @llvm.lifetime.end.p0i8(i64 501, i8* nonnull %5) #4
  call void @llvm.lifetime.end.p0i8(i64 8, i8* nonnull %4) #4
  ret i32 0
}

; Function Attrs: argmemonly mustprogress nofree nosync nounwind willreturn
declare void @llvm.lifetime.start.p0i8(i64 immarg, i8* nocapture) #1

; Function Attrs: nofree nounwind
declare noundef i32 @__isoc99_scanf(i8* nocapture noundef readonly, ...) local_unnamed_addr #2

; Function Attrs: argmemonly mustprogress nofree nounwind readonly willreturn
declare i64 @strlen(i8* nocapture) local_unnamed_addr #3

; Function Attrs: nofree nounwind
declare noundef i32 @printf(i8* nocapture noundef readonly, ...) local_unnamed_addr #2

; Function Attrs: argmemonly mustprogress nofree nosync nounwind willreturn
declare void @llvm.lifetime.end.p0i8(i64 immarg, i8* nocapture) #1


!llvm.module.flags = !{!0, !1, !2, !3}
!llvm.ident = !{!4}

!0 = !{i32 1, !"wchar_size", i32 4}
!1 = !{i32 7, !"PIC Level", i32 2}
!2 = !{i32 7, !"PIE Level", i32 2}
!3 = !{i32 7, !"uwtable", i32 1}
!4 = !{!"clang version 13.0.0"}
!5 = !{!6, !6, i64 0}
!6 = !{!"omnipotent char", !7, i64 0}
!7 = !{!"Simple C/C++ TBAA"}
!8 = distinct !{!8, !9}
!9 = !{!"llvm.loop.mustprogress"}
!10 = distinct !{!10, !9}
!11 = !{!12, !12, i64 0}
!12 = !{!"double", !6, i64 0}
